target datalayout = "e-m:e-p270:32:32-p271:32:32-p272:64:64-i64:64-i128:128-f80:128-n8:16:32:64-S128"
target triple = "x86_64-pc-linux-gnu"

%struct.child_prov_globals = type { ptr, ptr, ptr, ptr, ptr, ptr, ptr, ptr, ptr, ptr, ptr }

; Function Attrs: nounwind uwtable
define i32 @ossl_provider_free_parent(ptr noundef %0, i32 noundef %1) #0 {
  %3 = alloca i32, align 4
  %4 = alloca ptr, align 8
  %5 = alloca i32, align 4
  %6 = alloca ptr, align 8
  %7 = alloca ptr, align 8
  %8 = alloca i32, align 4
  store ptr %0, ptr %4, align 8, !tbaa !36
  store i32 %1, ptr %5, align 4, !tbaa !32
  call void @llvm.lifetime.start.p0(i64 8, ptr %6) #4
  call void @llvm.lifetime.start.p0(i64 8, ptr %7) #4
  %9 = load ptr, ptr %4, align 8, !tbaa !36
  %10 = call ptr @ossl_provider_libctx(ptr noundef %9)
  %11 = call ptr @ossl_lib_ctx_get_data(ptr noundef %10, i32 noundef 18)
  store ptr %11, ptr %6, align 8, !tbaa !9
  %12 = load ptr, ptr %6, align 8, !tbaa !9
  %13 = icmp eq ptr %12, null
  br i1 %13, label %14, label %15

14:                                               ; preds = %2
  store i32 0, ptr %3, align 4
  store i32 1, ptr %8, align 4
  br label %32

15:                                               ; preds = %2
  %16 = load ptr, ptr %4, align 8, !tbaa !36
  %17 = call ptr @ossl_provider_get_parent(ptr noundef %16)
  store ptr %17, ptr %7, align 8, !tbaa !14
  %18 = load ptr, ptr %7, align 8, !tbaa !14
  %19 = load ptr, ptr %6, align 8, !tbaa !9
  %20 = getelementptr inbounds nuw %struct.child_prov_globals, ptr %19, i32 0, i32 0
  %21 = load ptr, ptr %20, align 8, !tbaa !17
  %22 = icmp eq ptr %18, %21
  br i1 %22, label %23, label %24

23:                                               ; preds = %15
  store i32 1, ptr %3, align 4
  store i32 1, ptr %8, align 4
  br label %32

24:                                               ; preds = %15
  %25 = load ptr, ptr %6, align 8, !tbaa !9
  %26 = getelementptr inbounds nuw %struct.child_prov_globals, ptr %25, i32 0, i32 10
  %27 = load ptr, ptr %26, align 8, !tbaa !28
  %28 = load ptr, ptr %4, align 8, !tbaa !36
  %29 = call ptr @ossl_provider_get_parent(ptr noundef %28)
  %30 = load i32, ptr %5, align 4, !tbaa !32
  %31 = call i32 %27(ptr noundef %29, i32 noundef %30)
  store i32 %31, ptr %3, align 4
  store i32 1, ptr %8, align 4
  br label %32

32:                                               ; preds = %24, %23, %14
  call void @llvm.lifetime.end.p0(i64 8, ptr %7) #4
  call void @llvm.lifetime.end.p0(i64 8, ptr %6) #4
  %33 = load i32, ptr %3, align 4
  ret i32 %33
}