; Function Attrs: nounwind uwtable
define i32 @ossl_provider_free_parent(ptr noundef %0, i32 noundef %1) local_unnamed_addr #0 {
  %3 = tail call ptr @ossl_provider_libctx(ptr noundef %0) #2
  %4 = tail call ptr @ossl_lib_ctx_get_data(ptr noundef %3, i32 noundef 18) #2
  %5 = icmp eq ptr %4, null
  br i1 %5, label %15, label %6

6:                                                ; preds = %2
  %7 = tail call ptr @ossl_provider_get_parent(ptr noundef %0) #2
  %8 = load ptr, ptr %4, align 8, !tbaa !9
  %9 = icmp eq ptr %7, %8
  br i1 %9, label %15, label %10

10:                                               ; preds = %6
  %11 = getelementptr inbounds nuw i8, ptr %4, i64 80
  %12 = load ptr, ptr %11, align 8, !tbaa !21
  %13 = tail call ptr @ossl_provider_get_parent(ptr noundef %0) #2
  %14 = tail call i32 %12(ptr noundef %13, i32 noundef %1) #2
  br label %15

15:                                               ; preds = %6, %2, %10
  %.0 = phi i32 [ %14, %10 ], [ 0, %2 ], [ 1, %6 ]
  ret i32 %.0
}